ARM GAS  C:\Users\81806\AppData\Local\Temp\cchQkv7R.s 			page 1


   1              		.cpu cortex-m4
   2              		.eabi_attribute 27, 1
   3              		.eabi_attribute 28, 1
   4              		.eabi_attribute 20, 1
   5              		.eabi_attribute 21, 1
   6              		.eabi_attribute 23, 3
   7              		.eabi_attribute 24, 1
   8              		.eabi_attribute 25, 1
   9              		.eabi_attribute 26, 1
  10              		.eabi_attribute 30, 1
  11              		.eabi_attribute 34, 1
  12              		.eabi_attribute 18, 4
  13              		.file	"main.c"
  14              		.text
  15              	.Ltext0:
  16              		.cfi_sections	.debug_frame
  17              		.section	.text.MX_GPIO_Init,"ax",%progbits
  18              		.align	1
  19              		.syntax unified
  20              		.thumb
  21              		.thumb_func
  22              		.fpu fpv4-sp-d16
  24              	MX_GPIO_Init:
  25              	.LFB135:
  26              		.file 1 "Src/main.c"
   1:Src/main.c    **** 
   2:Src/main.c    **** /**
   3:Src/main.c    ****   ******************************************************************************
   4:Src/main.c    ****   * @file           : main.c
   5:Src/main.c    ****   * @brief          : Main program body
   6:Src/main.c    ****   ******************************************************************************
   7:Src/main.c    ****   ** This notice applies to any and all portions of this file
   8:Src/main.c    ****   * that are not between comment pairs USER CODE BEGIN and
   9:Src/main.c    ****   * USER CODE END. Other portions of this file, whether 
  10:Src/main.c    ****   * inserted by the user or by software development tools
  11:Src/main.c    ****   * are owned by their respective copyright owners.
  12:Src/main.c    ****   *
  13:Src/main.c    ****   * COPYRIGHT(c) 2018 STMicroelectronics
  14:Src/main.c    ****   *
  15:Src/main.c    ****   * Redistribution and use in source and binary forms, with or without modification,
  16:Src/main.c    ****   * are permitted provided that the following conditions are met:
  17:Src/main.c    ****   *   1. Redistributions of source code must retain the above copyright notice,
  18:Src/main.c    ****   *      this list of conditions and the following disclaimer.
  19:Src/main.c    ****   *   2. Redistributions in binary form must reproduce the above copyright notice,
  20:Src/main.c    ****   *      this list of conditions and the following disclaimer in the documentation
  21:Src/main.c    ****   *      and/or other materials provided with the distribution.
  22:Src/main.c    ****   *   3. Neither the name of STMicroelectronics nor the names of its contributors
  23:Src/main.c    ****   *      may be used to endorse or promote products derived from this software
  24:Src/main.c    ****   *      without specific prior written permission.
  25:Src/main.c    ****   *
  26:Src/main.c    ****   * THIS SOFTWARE IS PROVIDED BY THE COPYRIGHT HOLDERS AND CONTRIBUTORS "AS IS"
  27:Src/main.c    ****   * AND ANY EXPRESS OR IMPLIED WARRANTIES, INCLUDING, BUT NOT LIMITED TO, THE
  28:Src/main.c    ****   * IMPLIED WARRANTIES OF MERCHANTABILITY AND FITNESS FOR A PARTICULAR PURPOSE ARE
  29:Src/main.c    ****   * DISCLAIMED. IN NO EVENT SHALL THE COPYRIGHT HOLDER OR CONTRIBUTORS BE LIABLE
  30:Src/main.c    ****   * FOR ANY DIRECT, INDIRECT, INCIDENTAL, SPECIAL, EXEMPLARY, OR CONSEQUENTIAL
  31:Src/main.c    ****   * DAMAGES (INCLUDING, BUT NOT LIMITED TO, PROCUREMENT OF SUBSTITUTE GOODS OR
  32:Src/main.c    ****   * SERVICES; LOSS OF USE, DATA, OR PROFITS; OR BUSINESS INTERRUPTION) HOWEVER
ARM GAS  C:\Users\81806\AppData\Local\Temp\cchQkv7R.s 			page 2


  33:Src/main.c    ****   * CAUSED AND ON ANY THEORY OF LIABILITY, WHETHER IN CONTRACT, STRICT LIABILITY,
  34:Src/main.c    ****   * OR TORT (INCLUDING NEGLIGENCE OR OTHERWISE) ARISING IN ANY WAY OUT OF THE USE
  35:Src/main.c    ****   * OF THIS SOFTWARE, EVEN IF ADVISED OF THE POSSIBILITY OF SUCH DAMAGE.
  36:Src/main.c    ****   *
  37:Src/main.c    ****   ******************************************************************************
  38:Src/main.c    ****   */
  39:Src/main.c    **** /* Includes ------------------------------------------------------------------*/
  40:Src/main.c    **** #include "main.h"
  41:Src/main.c    **** #include "stm32l4xx_hal.h"
  42:Src/main.c    **** 
  43:Src/main.c    **** /* USER CODE BEGIN Includes */
  44:Src/main.c    **** #include <stdio.h>
  45:Src/main.c    **** #include <string.h>
  46:Src/main.c    **** #include <math.h>
  47:Src/main.c    **** /* USER CODE END Includes */
  48:Src/main.c    **** 
  49:Src/main.c    **** /* Private variables ---------------------------------------------------------*/
  50:Src/main.c    **** I2C_HandleTypeDef hi2c1;
  51:Src/main.c    **** 
  52:Src/main.c    **** UART_HandleTypeDef huart2;
  53:Src/main.c    **** 
  54:Src/main.c    **** /* USER CODE BEGIN PV */
  55:Src/main.c    **** /* Private variables ---------------------------------------------------------*/
  56:Src/main.c    **** #define Addr_Accl 0x19
  57:Src/main.c    **** #define I2C_BUF_SIZE 100
  58:Src/main.c    **** 
  59:Src/main.c    **** float xAccl = 0.00;
  60:Src/main.c    **** float yAccl = 0.00;
  61:Src/main.c    **** float zAccl = 0.00;
  62:Src/main.c    **** 
  63:Src/main.c    **** /* USER CODE END PV */
  64:Src/main.c    **** 
  65:Src/main.c    **** uint8_t r_data = 0;
  66:Src/main.c    **** uint8_t r_data2 = 0;
  67:Src/main.c    **** 
  68:Src/main.c    **** char k[I2C_BUF_SIZE];
  69:Src/main.c    **** char s[I2C_BUF_SIZE];
  70:Src/main.c    **** 
  71:Src/main.c    **** /* Private function prototypes -----------------------------------------------*/
  72:Src/main.c    **** void SystemClock_Config(void);
  73:Src/main.c    **** static void MX_GPIO_Init(void);
  74:Src/main.c    **** static void MX_USART2_UART_Init(void);
  75:Src/main.c    **** static void MX_I2C1_Init(void);
  76:Src/main.c    **** 
  77:Src/main.c    **** void BMX_Init(void);
  78:Src/main.c    **** void BMX_Accl(void);
  79:Src/main.c    **** void BMX_Set_Shadow_dis(_Bool);
  80:Src/main.c    **** _Bool BMX_Check_connection(void);
  81:Src/main.c    **** void Show_float(float);
  82:Src/main.c    **** 
  83:Src/main.c    **** /**
  84:Src/main.c    ****   * @brief  The application entry point.
  85:Src/main.c    ****   *
  86:Src/main.c    ****   * @retval None
  87:Src/main.c    ****   */
  88:Src/main.c    **** int main(void)
  89:Src/main.c    **** {
ARM GAS  C:\Users\81806\AppData\Local\Temp\cchQkv7R.s 			page 3


  90:Src/main.c    ****   /* USER CODE BEGIN 1 */
  91:Src/main.c    **** 
  92:Src/main.c    ****   /* USER CODE END 1 */
  93:Src/main.c    **** 
  94:Src/main.c    ****   /* MCU Configuration----------------------------------------------------------*/
  95:Src/main.c    **** 
  96:Src/main.c    ****   /* Reset of all peripherals, Initializes the Flash interface and the Systick. */
  97:Src/main.c    ****   HAL_Init();
  98:Src/main.c    **** 
  99:Src/main.c    ****   /* USER CODE BEGIN Init */
 100:Src/main.c    **** 
 101:Src/main.c    ****   /* USER CODE END Init */
 102:Src/main.c    **** 
 103:Src/main.c    ****   /* Configure the system clock */
 104:Src/main.c    ****   SystemClock_Config();
 105:Src/main.c    **** 
 106:Src/main.c    ****   /* USER CODE BEGIN SysInit */
 107:Src/main.c    **** 
 108:Src/main.c    ****   /* USER CODE END SysInit */
 109:Src/main.c    **** 
 110:Src/main.c    ****   /* Initialize all configured peripherals */
 111:Src/main.c    ****   MX_GPIO_Init();
 112:Src/main.c    ****   MX_USART2_UART_Init();
 113:Src/main.c    ****   MX_I2C1_Init();
 114:Src/main.c    ****   /* USER CODE BEGIN 2 */
 115:Src/main.c    ****   BMX_Init();
 116:Src/main.c    ****   BMX_Check_connection();
 117:Src/main.c    ****   /* USER CODE END 2 */
 118:Src/main.c    **** 
 119:Src/main.c    ****   /* Infinite loop */
 120:Src/main.c    ****   /* USER CODE BEGIN WHILE */
 121:Src/main.c    ****  
 122:Src/main.c    ****   while (1)
 123:Src/main.c    ****   {
 124:Src/main.c    ****    BMX_Accl();
 125:Src/main.c    ****    Show_float(xAccl);
 126:Src/main.c    ****    Show_float(yAccl);
 127:Src/main.c    ****    Show_float(zAccl);
 128:Src/main.c    ****    HAL_Delay(1000);
 129:Src/main.c    ****   }
 130:Src/main.c    **** }
 131:Src/main.c    **** 
 132:Src/main.c    **** 
 133:Src/main.c    **** /** BMX Init*/
 134:Src/main.c    **** void BMX_Init(void){
 135:Src/main.c    **** // init x axis 
 136:Src/main.c    **** 
 137:Src/main.c    **** //select PMU band width resisiter and set to 7.81 Hz
 138:Src/main.c    **** uint16_t Mem_PMU_BW = 0x10;
 139:Src/main.c    **** uint8_t p_BW = 0x08;
 140:Src/main.c    **** HAL_I2C_Mem_Write(&hi2c1,Addr_Accl<<1,Mem_PMU_BW,1,&p_BW,1,100);
 141:Src/main.c    **** HAL_Delay(100);
 142:Src/main.c    **** 
 143:Src/main.c    **** //select PMU range resisiter and set to -2
 144:Src/main.c    **** uint16_t Mem_PMU_Range = 0x0F;
 145:Src/main.c    **** uint8_t p_Range = 0x03;
 146:Src/main.c    **** HAL_I2C_Mem_Write(&hi2c1,Addr_Accl<<1,Mem_PMU_Range,1,&p_Range,1,100);
ARM GAS  C:\Users\81806\AppData\Local\Temp\cchQkv7R.s 			page 4


 147:Src/main.c    **** HAL_Delay(100);
 148:Src/main.c    **** 
 149:Src/main.c    **** //select PMU LPW resisiter and Normal mode
 150:Src/main.c    **** uint16_t Mem_PMU_LPW = 0x11;
 151:Src/main.c    **** uint8_t p_LPW = 0x00;
 152:Src/main.c    **** HAL_I2C_Mem_Write(&hi2c1,Addr_Accl<<1,Mem_PMU_LPW,1,&p_LPW,1,100);
 153:Src/main.c    **** HAL_Delay(100);
 154:Src/main.c    **** }
 155:Src/main.c    **** 
 156:Src/main.c    **** // BMX read Acceleration 
 157:Src/main.c    **** void BMX_Accl(void){
 158:Src/main.c    ****   uint8_t xAccl_MSB;
 159:Src/main.c    ****   uint8_t xAccl_LSB;
 160:Src/main.c    ****   uint8_t yAccl_MSB;
 161:Src/main.c    ****   uint8_t yAccl_LSB;
 162:Src/main.c    ****   uint8_t zAccl_MSB;
 163:Src/main.c    ****   uint8_t zAccl_LSB;
 164:Src/main.c    **** 
 165:Src/main.c    ****   uint8_t Mem_xLSB = 0x02;  
 166:Src/main.c    ****   uint8_t Mem_xMSB = 0x03;
 167:Src/main.c    ****   uint8_t Mem_yLSB = 0x04;
 168:Src/main.c    ****   uint8_t Mem_yMSB = 0x05;
 169:Src/main.c    ****   uint8_t Mem_zLSB = 0x06;  
 170:Src/main.c    ****   uint8_t Mem_zMSB = 0x07;
 171:Src/main.c    ****   
 172:Src/main.c    ****   _Bool is_available = 1;
 173:Src/main.c    ****   _Bool is_unavailable = 0;
 174:Src/main.c    **** 
 175:Src/main.c    ****   HAL_I2C_Mem_Read(&hi2c1,Addr_Accl<<1,Mem_xLSB,1,&xAccl_LSB,1,100);
 176:Src/main.c    ****   BMX_Set_Shadow_dis(is_available);
 177:Src/main.c    ****   HAL_I2C_Mem_Read(&hi2c1,Addr_Accl<<1,Mem_xMSB,1,&xAccl_MSB,1,100);
 178:Src/main.c    ****   BMX_Set_Shadow_dis(is_unavailable);
 179:Src/main.c    ****   
 180:Src/main.c    ****  
 181:Src/main.c    ****   HAL_I2C_Mem_Read(&hi2c1,Addr_Accl<<1,Mem_yLSB,1,&yAccl_LSB,1,100);
 182:Src/main.c    ****   BMX_Set_Shadow_dis(is_available);
 183:Src/main.c    ****   HAL_I2C_Mem_Read(&hi2c1,Addr_Accl<<1,Mem_yMSB,1,&yAccl_MSB,1,100);
 184:Src/main.c    ****   BMX_Set_Shadow_dis(is_unavailable);
 185:Src/main.c    ****   
 186:Src/main.c    ****   HAL_I2C_Mem_Read(&hi2c1,Addr_Accl<<1,Mem_zLSB,1,&zAccl_LSB,1,100);
 187:Src/main.c    ****   BMX_Set_Shadow_dis(is_available);
 188:Src/main.c    ****   HAL_I2C_Mem_Read(&hi2c1,Addr_Accl<<1,Mem_zMSB,1,&zAccl_MSB,1,100);
 189:Src/main.c    ****   BMX_Set_Shadow_dis(is_unavailable);
 190:Src/main.c    **** 
 191:Src/main.c    ****   xAccl = ((xAccl_MSB*256) + (xAccl_LSB & 0xF0))/16;
 192:Src/main.c    ****   if(xAccl>2047) xAccl -= 4096;
 193:Src/main.c    ****   yAccl = ((yAccl_MSB*256) + (yAccl_LSB & 0xF0))/16;
 194:Src/main.c    ****   if(yAccl>2047) yAccl -= 4096;
 195:Src/main.c    ****   xAccl = ((zAccl_MSB*256) + (zAccl_LSB & 0xF0))/16;
 196:Src/main.c    ****   if(zAccl>2047) zAccl -= 4096;
 197:Src/main.c    ****   
 198:Src/main.c    ****   xAccl = xAccl*0.0098;
 199:Src/main.c    ****   yAccl = yAccl*0.0098;
 200:Src/main.c    ****   zAccl = zAccl*0.0098;
 201:Src/main.c    **** }
 202:Src/main.c    **** 
 203:Src/main.c    **** void BMX_Set_Shadow_dis(_Bool status){
ARM GAS  C:\Users\81806\AppData\Local\Temp\cchQkv7R.s 			page 5


 204:Src/main.c    ****   uint8_t Shadow_dis = 0x13;
 205:Src/main.c    ****   uint8_t SetValue;
 206:Src/main.c    ****   
 207:Src/main.c    ****   if (status == 1) SetValue = 0b00000000;
 208:Src/main.c    ****   else if ( status == 0) SetValue =  0b01000000;
 209:Src/main.c    ****   HAL_I2C_Mem_Write(&hi2c1,Addr_Accl<<1,Shadow_dis,1,&SetValue,1,100);
 210:Src/main.c    **** }
 211:Src/main.c    **** 
 212:Src/main.c    **** _Bool BMX_Check_connection(void){
 213:Src/main.c    ****   uint8_t r_data;
 214:Src/main.c    ****   char buff[I2C_BUF_SIZE];
 215:Src/main.c    **** 
 216:Src/main.c    ****   HAL_I2C_Mem_Read(&hi2c1,Addr_Accl<<1,0x00,1,&r_data,1,100);
 217:Src/main.c    ****   if (r_data == 0xFA) sprintf(buff,"Connection available\n",r_data);
 218:Src/main.c    ****   else if (r_data != 0xFA) sprintf(buff,"Connection unavailable\n",r_data);  
 219:Src/main.c    ****   HAL_UART_Transmit (&huart2,(uint8_t*)(&buff[0]),strlen(&k[0]),100);
 220:Src/main.c    **** }
 221:Src/main.c    ****                 
 222:Src/main.c    **** void Show_float(float value){
 223:Src/main.c    ****   char *tempsign = (value < 0) ? "-":"";
 224:Src/main.c    ****   double tempval = (value<0) ? -1*xAccl:xAccl;
 225:Src/main.c    ****   int tempInt1 = (int)tempval;
 226:Src/main.c    ****   float tempfrac = tempval - tempInt1;
 227:Src/main.c    ****   int tempInt2 = trunc(tempfrac*100000);  
 228:Src/main.c    **** 
 229:Src/main.c    ****   sprintf(s,"xAccl = %s%d.%04d\n",tempsign,tempInt1,tempInt2);
 230:Src/main.c    ****   HAL_UART_Transmit (&huart2,(uint8_t*)(&s[0]),strlen(&s[0]),100);
 231:Src/main.c    **** }
 232:Src/main.c    **** 
 233:Src/main.c    **** /**
 234:Src/main.c    ****   * @brief System Clock Configuration
 235:Src/main.c    ****   * @retval None
 236:Src/main.c    ****   */
 237:Src/main.c    **** void SystemClock_Config(void)
 238:Src/main.c    **** {
 239:Src/main.c    **** 
 240:Src/main.c    ****   RCC_OscInitTypeDef RCC_OscInitStruct;
 241:Src/main.c    ****   RCC_ClkInitTypeDef RCC_ClkInitStruct;
 242:Src/main.c    ****   RCC_PeriphCLKInitTypeDef PeriphClkInit;
 243:Src/main.c    **** 
 244:Src/main.c    ****     /**Initializes the CPU, AHB and APB busses clocks 
 245:Src/main.c    ****     */
 246:Src/main.c    ****   RCC_OscInitStruct.OscillatorType = RCC_OSCILLATORTYPE_HSI;
 247:Src/main.c    ****   RCC_OscInitStruct.HSIState = RCC_HSI_ON;
 248:Src/main.c    ****   RCC_OscInitStruct.HSICalibrationValue = 16;
 249:Src/main.c    ****   RCC_OscInitStruct.PLL.PLLState = RCC_PLL_ON;
 250:Src/main.c    ****   RCC_OscInitStruct.PLL.PLLSource = RCC_PLLSOURCE_HSI;
 251:Src/main.c    ****   RCC_OscInitStruct.PLL.PLLM = 1;
 252:Src/main.c    ****   RCC_OscInitStruct.PLL.PLLN = 10;
 253:Src/main.c    ****   RCC_OscInitStruct.PLL.PLLP = RCC_PLLP_DIV7;
 254:Src/main.c    ****   RCC_OscInitStruct.PLL.PLLQ = RCC_PLLQ_DIV2;
 255:Src/main.c    ****   RCC_OscInitStruct.PLL.PLLR = RCC_PLLR_DIV2;
 256:Src/main.c    ****   if (HAL_RCC_OscConfig(&RCC_OscInitStruct) != HAL_OK)
 257:Src/main.c    ****   {
 258:Src/main.c    ****     _Error_Handler(__FILE__, __LINE__);
 259:Src/main.c    ****   }
 260:Src/main.c    **** 
ARM GAS  C:\Users\81806\AppData\Local\Temp\cchQkv7R.s 			page 6


 261:Src/main.c    ****     /**Initializes the CPU, AHB and APB busses clocks 
 262:Src/main.c    ****     */
 263:Src/main.c    ****   RCC_ClkInitStruct.ClockType = RCC_CLOCKTYPE_HCLK|RCC_CLOCKTYPE_SYSCLK
 264:Src/main.c    ****                               |RCC_CLOCKTYPE_PCLK1|RCC_CLOCKTYPE_PCLK2;
 265:Src/main.c    ****   RCC_ClkInitStruct.SYSCLKSource = RCC_SYSCLKSOURCE_PLLCLK;
 266:Src/main.c    ****   RCC_ClkInitStruct.AHBCLKDivider = RCC_SYSCLK_DIV1;
 267:Src/main.c    ****   RCC_ClkInitStruct.APB1CLKDivider = RCC_HCLK_DIV1;
 268:Src/main.c    ****   RCC_ClkInitStruct.APB2CLKDivider = RCC_HCLK_DIV1;
 269:Src/main.c    **** 
 270:Src/main.c    ****   if (HAL_RCC_ClockConfig(&RCC_ClkInitStruct, FLASH_LATENCY_4) != HAL_OK)
 271:Src/main.c    ****   {
 272:Src/main.c    ****     _Error_Handler(__FILE__, __LINE__);
 273:Src/main.c    ****   }
 274:Src/main.c    **** 
 275:Src/main.c    ****   PeriphClkInit.PeriphClockSelection = RCC_PERIPHCLK_USART2|RCC_PERIPHCLK_I2C1;
 276:Src/main.c    ****   PeriphClkInit.Usart2ClockSelection = RCC_USART2CLKSOURCE_PCLK1;
 277:Src/main.c    ****   PeriphClkInit.I2c1ClockSelection = RCC_I2C1CLKSOURCE_PCLK1;
 278:Src/main.c    ****   if (HAL_RCCEx_PeriphCLKConfig(&PeriphClkInit) != HAL_OK)
 279:Src/main.c    ****   {
 280:Src/main.c    ****     _Error_Handler(__FILE__, __LINE__);
 281:Src/main.c    ****   }
 282:Src/main.c    **** 
 283:Src/main.c    ****     /**Configure the main internal regulator output voltage 
 284:Src/main.c    ****     */
 285:Src/main.c    ****   if (HAL_PWREx_ControlVoltageScaling(PWR_REGULATOR_VOLTAGE_SCALE1) != HAL_OK)
 286:Src/main.c    ****   {
 287:Src/main.c    ****     _Error_Handler(__FILE__, __LINE__);
 288:Src/main.c    ****   }
 289:Src/main.c    **** 
 290:Src/main.c    ****     /**Configure the Systick interrupt time 
 291:Src/main.c    ****     */
 292:Src/main.c    ****   HAL_SYSTICK_Config(HAL_RCC_GetHCLKFreq()/1000);
 293:Src/main.c    **** 
 294:Src/main.c    ****     /**Configure the Systick 
 295:Src/main.c    ****     */
 296:Src/main.c    ****   HAL_SYSTICK_CLKSourceConfig(SYSTICK_CLKSOURCE_HCLK);
 297:Src/main.c    **** 
 298:Src/main.c    ****   /* SysTick_IRQn interrupt configuration */
 299:Src/main.c    ****   HAL_NVIC_SetPriority(SysTick_IRQn, 0, 0);
 300:Src/main.c    **** }
 301:Src/main.c    **** 
 302:Src/main.c    **** /* I2C1 init function */
 303:Src/main.c    **** static void MX_I2C1_Init(void)
 304:Src/main.c    **** {
 305:Src/main.c    **** 
 306:Src/main.c    ****   hi2c1.Instance = I2C1;
 307:Src/main.c    ****   hi2c1.Init.Timing = 0x10909CEC;
 308:Src/main.c    ****   hi2c1.Init.OwnAddress1 = 0;
 309:Src/main.c    ****   hi2c1.Init.AddressingMode = I2C_ADDRESSINGMODE_7BIT;
 310:Src/main.c    ****   hi2c1.Init.DualAddressMode = I2C_DUALADDRESS_DISABLE;
 311:Src/main.c    ****   hi2c1.Init.OwnAddress2 = 0;
 312:Src/main.c    ****   hi2c1.Init.OwnAddress2Masks = I2C_OA2_NOMASK;
 313:Src/main.c    ****   hi2c1.Init.GeneralCallMode = I2C_GENERALCALL_DISABLE;
 314:Src/main.c    ****   hi2c1.Init.NoStretchMode = I2C_NOSTRETCH_DISABLE;
 315:Src/main.c    ****   if (HAL_I2C_Init(&hi2c1) != HAL_OK)
 316:Src/main.c    ****   {
 317:Src/main.c    ****     _Error_Handler(__FILE__, __LINE__);
ARM GAS  C:\Users\81806\AppData\Local\Temp\cchQkv7R.s 			page 7


 318:Src/main.c    ****   }
 319:Src/main.c    **** 
 320:Src/main.c    ****     /**Configure Analogue filter 
 321:Src/main.c    ****     */
 322:Src/main.c    ****   if (HAL_I2CEx_ConfigAnalogFilter(&hi2c1, I2C_ANALOGFILTER_ENABLE) != HAL_OK)
 323:Src/main.c    ****   {
 324:Src/main.c    ****     _Error_Handler(__FILE__, __LINE__);
 325:Src/main.c    ****   }
 326:Src/main.c    **** 
 327:Src/main.c    ****     /**Configure Digital filter 
 328:Src/main.c    ****     */
 329:Src/main.c    ****   if (HAL_I2CEx_ConfigDigitalFilter(&hi2c1, 0) != HAL_OK)
 330:Src/main.c    ****   {
 331:Src/main.c    ****     _Error_Handler(__FILE__, __LINE__);
 332:Src/main.c    ****   }
 333:Src/main.c    **** 
 334:Src/main.c    **** }
 335:Src/main.c    **** 
 336:Src/main.c    **** /* USART2 init function */
 337:Src/main.c    **** static void MX_USART2_UART_Init(void)
 338:Src/main.c    **** {
 339:Src/main.c    **** 
 340:Src/main.c    ****   huart2.Instance = USART2;
 341:Src/main.c    ****   huart2.Init.BaudRate = 115200;
 342:Src/main.c    ****   huart2.Init.WordLength = UART_WORDLENGTH_8B;
 343:Src/main.c    ****   huart2.Init.StopBits = UART_STOPBITS_1;
 344:Src/main.c    ****   huart2.Init.Parity = UART_PARITY_NONE;
 345:Src/main.c    ****   huart2.Init.Mode = UART_MODE_TX_RX;
 346:Src/main.c    ****   huart2.Init.HwFlowCtl = UART_HWCONTROL_NONE;
 347:Src/main.c    ****   huart2.Init.OverSampling = UART_OVERSAMPLING_16;
 348:Src/main.c    ****   huart2.Init.OneBitSampling = UART_ONE_BIT_SAMPLE_DISABLE;
 349:Src/main.c    ****   huart2.AdvancedInit.AdvFeatureInit = UART_ADVFEATURE_NO_INIT;
 350:Src/main.c    ****   if (HAL_UART_Init(&huart2) != HAL_OK)
 351:Src/main.c    ****   {
 352:Src/main.c    ****     _Error_Handler(__FILE__, __LINE__);
 353:Src/main.c    ****   }
 354:Src/main.c    **** 
 355:Src/main.c    **** }
 356:Src/main.c    **** 
 357:Src/main.c    **** /** Configure pins as 
 358:Src/main.c    ****         * Analog 
 359:Src/main.c    ****         * Input 
 360:Src/main.c    ****         * Output
 361:Src/main.c    ****         * EVENT_OUT
 362:Src/main.c    ****         * EXTI
 363:Src/main.c    **** */
 364:Src/main.c    **** static void MX_GPIO_Init(void)
 365:Src/main.c    **** {
  27              		.loc 1 365 0
  28              		.cfi_startproc
  29              		@ args = 0, pretend = 0, frame = 40
  30              		@ frame_needed = 0, uses_anonymous_args = 0
  31 0000 10B5     		push	{r4, lr}
  32              	.LCFI0:
  33              		.cfi_def_cfa_offset 8
  34              		.cfi_offset 4, -8
  35              		.cfi_offset 14, -4
ARM GAS  C:\Users\81806\AppData\Local\Temp\cchQkv7R.s 			page 8


  36 0002 8AB0     		sub	sp, sp, #40
  37              	.LCFI1:
  38              		.cfi_def_cfa_offset 48
  39              	.LBB2:
 366:Src/main.c    **** 
 367:Src/main.c    ****   GPIO_InitTypeDef GPIO_InitStruct;
 368:Src/main.c    **** 
 369:Src/main.c    ****   /* GPIO Ports Clock Enable */
 370:Src/main.c    ****   __HAL_RCC_GPIOC_CLK_ENABLE();
  40              		.loc 1 370 0
  41 0004 214B     		ldr	r3, .L3
  42 0006 DA6C     		ldr	r2, [r3, #76]
  43 0008 42F00402 		orr	r2, r2, #4
  44 000c DA64     		str	r2, [r3, #76]
  45 000e DA6C     		ldr	r2, [r3, #76]
  46 0010 02F00402 		and	r2, r2, #4
  47 0014 0192     		str	r2, [sp, #4]
  48 0016 019A     		ldr	r2, [sp, #4]
  49              	.LBE2:
  50              	.LBB3:
 371:Src/main.c    ****   __HAL_RCC_GPIOH_CLK_ENABLE();
  51              		.loc 1 371 0
  52 0018 DA6C     		ldr	r2, [r3, #76]
  53 001a 42F08002 		orr	r2, r2, #128
  54 001e DA64     		str	r2, [r3, #76]
  55 0020 DA6C     		ldr	r2, [r3, #76]
  56 0022 02F08002 		and	r2, r2, #128
  57 0026 0292     		str	r2, [sp, #8]
  58 0028 029A     		ldr	r2, [sp, #8]
  59              	.LBE3:
  60              	.LBB4:
 372:Src/main.c    ****   __HAL_RCC_GPIOA_CLK_ENABLE();
  61              		.loc 1 372 0
  62 002a DA6C     		ldr	r2, [r3, #76]
  63 002c 42F00102 		orr	r2, r2, #1
  64 0030 DA64     		str	r2, [r3, #76]
  65 0032 DA6C     		ldr	r2, [r3, #76]
  66 0034 02F00102 		and	r2, r2, #1
  67 0038 0392     		str	r2, [sp, #12]
  68 003a 039A     		ldr	r2, [sp, #12]
  69              	.LBE4:
  70              	.LBB5:
 373:Src/main.c    ****   __HAL_RCC_GPIOB_CLK_ENABLE();
  71              		.loc 1 373 0
  72 003c DA6C     		ldr	r2, [r3, #76]
  73 003e 42F00202 		orr	r2, r2, #2
  74 0042 DA64     		str	r2, [r3, #76]
  75 0044 DB6C     		ldr	r3, [r3, #76]
  76 0046 03F00203 		and	r3, r3, #2
  77 004a 0493     		str	r3, [sp, #16]
  78 004c 049B     		ldr	r3, [sp, #16]
  79              	.LBE5:
 374:Src/main.c    **** 
 375:Src/main.c    ****   /*Configure GPIO pin Output Level */
 376:Src/main.c    ****   HAL_GPIO_WritePin(LD2_GPIO_Port, LD2_Pin, GPIO_PIN_RESET);
  80              		.loc 1 376 0
  81 004e 0022     		movs	r2, #0
ARM GAS  C:\Users\81806\AppData\Local\Temp\cchQkv7R.s 			page 9


  82 0050 2021     		movs	r1, #32
  83 0052 4FF09040 		mov	r0, #1207959552
  84 0056 FFF7FEFF 		bl	HAL_GPIO_WritePin
  85              	.LVL0:
 377:Src/main.c    **** 
 378:Src/main.c    ****   /*Configure GPIO pin : B1_Pin */
 379:Src/main.c    ****   GPIO_InitStruct.Pin = B1_Pin;
  86              		.loc 1 379 0
  87 005a 4FF40053 		mov	r3, #8192
  88 005e 0593     		str	r3, [sp, #20]
 380:Src/main.c    ****   GPIO_InitStruct.Mode = GPIO_MODE_IT_FALLING;
  89              		.loc 1 380 0
  90 0060 0B4B     		ldr	r3, .L3+4
  91 0062 0693     		str	r3, [sp, #24]
 381:Src/main.c    ****   GPIO_InitStruct.Pull = GPIO_NOPULL;
  92              		.loc 1 381 0
  93 0064 0024     		movs	r4, #0
  94 0066 0794     		str	r4, [sp, #28]
 382:Src/main.c    ****   HAL_GPIO_Init(B1_GPIO_Port, &GPIO_InitStruct);
  95              		.loc 1 382 0
  96 0068 05A9     		add	r1, sp, #20
  97 006a 0A48     		ldr	r0, .L3+8
  98 006c FFF7FEFF 		bl	HAL_GPIO_Init
  99              	.LVL1:
 383:Src/main.c    **** 
 384:Src/main.c    ****   /*Configure GPIO pin : LD2_Pin */
 385:Src/main.c    ****   GPIO_InitStruct.Pin = LD2_Pin;
 100              		.loc 1 385 0
 101 0070 2023     		movs	r3, #32
 102 0072 0593     		str	r3, [sp, #20]
 386:Src/main.c    ****   GPIO_InitStruct.Mode = GPIO_MODE_OUTPUT_PP;
 103              		.loc 1 386 0
 104 0074 0123     		movs	r3, #1
 105 0076 0693     		str	r3, [sp, #24]
 387:Src/main.c    ****   GPIO_InitStruct.Pull = GPIO_NOPULL;
 106              		.loc 1 387 0
 107 0078 0794     		str	r4, [sp, #28]
 388:Src/main.c    ****   GPIO_InitStruct.Speed = GPIO_SPEED_FREQ_LOW;
 108              		.loc 1 388 0
 109 007a 0894     		str	r4, [sp, #32]
 389:Src/main.c    ****   HAL_GPIO_Init(LD2_GPIO_Port, &GPIO_InitStruct);
 110              		.loc 1 389 0
 111 007c 05A9     		add	r1, sp, #20
 112 007e 4FF09040 		mov	r0, #1207959552
 113 0082 FFF7FEFF 		bl	HAL_GPIO_Init
 114              	.LVL2:
 390:Src/main.c    **** 
 391:Src/main.c    **** }
 115              		.loc 1 391 0
 116 0086 0AB0     		add	sp, sp, #40
 117              	.LCFI2:
 118              		.cfi_def_cfa_offset 8
 119              		@ sp needed
 120 0088 10BD     		pop	{r4, pc}
 121              	.L4:
 122 008a 00BF     		.align	2
 123              	.L3:
ARM GAS  C:\Users\81806\AppData\Local\Temp\cchQkv7R.s 			page 10


 124 008c 00100240 		.word	1073876992
 125 0090 00002110 		.word	270598144
 126 0094 00080048 		.word	1207961600
 127              		.cfi_endproc
 128              	.LFE135:
 130              		.section	.text.BMX_Init,"ax",%progbits
 131              		.align	1
 132              		.global	BMX_Init
 133              		.syntax unified
 134              		.thumb
 135              		.thumb_func
 136              		.fpu fpv4-sp-d16
 138              	BMX_Init:
 139              	.LFB127:
 134:Src/main.c    **** // init x axis 
 140              		.loc 1 134 0
 141              		.cfi_startproc
 142              		@ args = 0, pretend = 0, frame = 8
 143              		@ frame_needed = 0, uses_anonymous_args = 0
 144 0000 70B5     		push	{r4, r5, r6, lr}
 145              	.LCFI3:
 146              		.cfi_def_cfa_offset 16
 147              		.cfi_offset 4, -16
 148              		.cfi_offset 5, -12
 149              		.cfi_offset 6, -8
 150              		.cfi_offset 14, -4
 151 0002 86B0     		sub	sp, sp, #24
 152              	.LCFI4:
 153              		.cfi_def_cfa_offset 40
 154              	.LVL3:
 139:Src/main.c    **** HAL_I2C_Mem_Write(&hi2c1,Addr_Accl<<1,Mem_PMU_BW,1,&p_BW,1,100);
 155              		.loc 1 139 0
 156 0004 06AB     		add	r3, sp, #24
 157 0006 0822     		movs	r2, #8
 158 0008 03F8012D 		strb	r2, [r3, #-1]!
 140:Src/main.c    **** HAL_Delay(100);
 159              		.loc 1 140 0
 160 000c 184E     		ldr	r6, .L7
 161 000e 6424     		movs	r4, #100
 162 0010 0294     		str	r4, [sp, #8]
 163 0012 0125     		movs	r5, #1
 164 0014 0195     		str	r5, [sp, #4]
 165 0016 0093     		str	r3, [sp]
 166 0018 2B46     		mov	r3, r5
 167 001a 1022     		movs	r2, #16
 168 001c 3221     		movs	r1, #50
 169 001e 3046     		mov	r0, r6
 170 0020 FFF7FEFF 		bl	HAL_I2C_Mem_Write
 171              	.LVL4:
 141:Src/main.c    **** 
 172              		.loc 1 141 0
 173 0024 2046     		mov	r0, r4
 174 0026 FFF7FEFF 		bl	HAL_Delay
 175              	.LVL5:
 145:Src/main.c    **** HAL_I2C_Mem_Write(&hi2c1,Addr_Accl<<1,Mem_PMU_Range,1,&p_Range,1,100);
 176              		.loc 1 145 0
 177 002a 06AB     		add	r3, sp, #24
ARM GAS  C:\Users\81806\AppData\Local\Temp\cchQkv7R.s 			page 11


 178 002c 0322     		movs	r2, #3
 179 002e 03F8022D 		strb	r2, [r3, #-2]!
 146:Src/main.c    **** HAL_Delay(100);
 180              		.loc 1 146 0
 181 0032 0294     		str	r4, [sp, #8]
 182 0034 0195     		str	r5, [sp, #4]
 183 0036 0093     		str	r3, [sp]
 184 0038 2B46     		mov	r3, r5
 185 003a 0F22     		movs	r2, #15
 186 003c 3221     		movs	r1, #50
 187 003e 3046     		mov	r0, r6
 188 0040 FFF7FEFF 		bl	HAL_I2C_Mem_Write
 189              	.LVL6:
 147:Src/main.c    **** 
 190              		.loc 1 147 0
 191 0044 2046     		mov	r0, r4
 192 0046 FFF7FEFF 		bl	HAL_Delay
 193              	.LVL7:
 151:Src/main.c    **** HAL_I2C_Mem_Write(&hi2c1,Addr_Accl<<1,Mem_PMU_LPW,1,&p_LPW,1,100);
 194              		.loc 1 151 0
 195 004a 06AB     		add	r3, sp, #24
 196 004c 0022     		movs	r2, #0
 197 004e 03F8032D 		strb	r2, [r3, #-3]!
 152:Src/main.c    **** HAL_Delay(100);
 198              		.loc 1 152 0
 199 0052 0294     		str	r4, [sp, #8]
 200 0054 0195     		str	r5, [sp, #4]
 201 0056 0093     		str	r3, [sp]
 202 0058 2B46     		mov	r3, r5
 203 005a 1122     		movs	r2, #17
 204 005c 3221     		movs	r1, #50
 205 005e 3046     		mov	r0, r6
 206 0060 FFF7FEFF 		bl	HAL_I2C_Mem_Write
 207              	.LVL8:
 153:Src/main.c    **** }
 208              		.loc 1 153 0
 209 0064 2046     		mov	r0, r4
 210 0066 FFF7FEFF 		bl	HAL_Delay
 211              	.LVL9:
 154:Src/main.c    **** 
 212              		.loc 1 154 0
 213 006a 06B0     		add	sp, sp, #24
 214              	.LCFI5:
 215              		.cfi_def_cfa_offset 16
 216              		@ sp needed
 217 006c 70BD     		pop	{r4, r5, r6, pc}
 218              	.L8:
 219 006e 00BF     		.align	2
 220              	.L7:
 221 0070 00000000 		.word	hi2c1
 222              		.cfi_endproc
 223              	.LFE127:
 225              		.section	.text.BMX_Set_Shadow_dis,"ax",%progbits
 226              		.align	1
 227              		.global	BMX_Set_Shadow_dis
 228              		.syntax unified
 229              		.thumb
ARM GAS  C:\Users\81806\AppData\Local\Temp\cchQkv7R.s 			page 12


 230              		.thumb_func
 231              		.fpu fpv4-sp-d16
 233              	BMX_Set_Shadow_dis:
 234              	.LFB129:
 203:Src/main.c    ****   uint8_t Shadow_dis = 0x13;
 235              		.loc 1 203 0
 236              		.cfi_startproc
 237              		@ args = 0, pretend = 0, frame = 8
 238              		@ frame_needed = 0, uses_anonymous_args = 0
 239              	.LVL10:
 240 0000 00B5     		push	{lr}
 241              	.LCFI6:
 242              		.cfi_def_cfa_offset 4
 243              		.cfi_offset 14, -4
 244 0002 87B0     		sub	sp, sp, #28
 245              	.LCFI7:
 246              		.cfi_def_cfa_offset 32
 247              	.LVL11:
 207:Src/main.c    ****   else if ( status == 0) SetValue =  0b01000000;
 248              		.loc 1 207 0
 249 0004 88B9     		cbnz	r0, .L13
 208:Src/main.c    ****   HAL_I2C_Mem_Write(&hi2c1,Addr_Accl<<1,Shadow_dis,1,&SetValue,1,100);
 250              		.loc 1 208 0
 251 0006 4023     		movs	r3, #64
 252 0008 8DF81730 		strb	r3, [sp, #23]
 253              	.L11:
 209:Src/main.c    **** }
 254              		.loc 1 209 0
 255 000c 6423     		movs	r3, #100
 256 000e 0293     		str	r3, [sp, #8]
 257 0010 0123     		movs	r3, #1
 258 0012 0193     		str	r3, [sp, #4]
 259 0014 0DF11702 		add	r2, sp, #23
 260 0018 0092     		str	r2, [sp]
 261 001a 1322     		movs	r2, #19
 262 001c 3221     		movs	r1, #50
 263 001e 0548     		ldr	r0, .L14
 264              	.LVL12:
 265 0020 FFF7FEFF 		bl	HAL_I2C_Mem_Write
 266              	.LVL13:
 210:Src/main.c    **** 
 267              		.loc 1 210 0
 268 0024 07B0     		add	sp, sp, #28
 269              	.LCFI8:
 270              		.cfi_remember_state
 271              		.cfi_def_cfa_offset 4
 272              		@ sp needed
 273 0026 5DF804FB 		ldr	pc, [sp], #4
 274              	.LVL14:
 275              	.L13:
 276              	.LCFI9:
 277              		.cfi_restore_state
 207:Src/main.c    ****   else if ( status == 0) SetValue =  0b01000000;
 278              		.loc 1 207 0 discriminator 1
 279 002a 0023     		movs	r3, #0
 280 002c 8DF81730 		strb	r3, [sp, #23]
 281 0030 ECE7     		b	.L11
ARM GAS  C:\Users\81806\AppData\Local\Temp\cchQkv7R.s 			page 13


 282              	.L15:
 283 0032 00BF     		.align	2
 284              	.L14:
 285 0034 00000000 		.word	hi2c1
 286              		.cfi_endproc
 287              	.LFE129:
 289              		.global	__aeabi_f2d
 290              		.global	__aeabi_dmul
 291              		.global	__aeabi_d2f
 292              		.section	.text.BMX_Accl,"ax",%progbits
 293              		.align	1
 294              		.global	BMX_Accl
 295              		.syntax unified
 296              		.thumb
 297              		.thumb_func
 298              		.fpu fpv4-sp-d16
 300              	BMX_Accl:
 301              	.LFB128:
 157:Src/main.c    ****   uint8_t xAccl_MSB;
 302              		.loc 1 157 0
 303              		.cfi_startproc
 304              		@ args = 0, pretend = 0, frame = 8
 305              		@ frame_needed = 0, uses_anonymous_args = 0
 306 0000 70B5     		push	{r4, r5, r6, lr}
 307              	.LCFI10:
 308              		.cfi_def_cfa_offset 16
 309              		.cfi_offset 4, -16
 310              		.cfi_offset 5, -12
 311              		.cfi_offset 6, -8
 312              		.cfi_offset 14, -4
 313 0002 86B0     		sub	sp, sp, #24
 314              	.LCFI11:
 315              		.cfi_def_cfa_offset 40
 316              	.LVL15:
 175:Src/main.c    ****   BMX_Set_Shadow_dis(is_available);
 317              		.loc 1 175 0
 318 0004 5E4D     		ldr	r5, .L30+8
 319 0006 6426     		movs	r6, #100
 320 0008 0296     		str	r6, [sp, #8]
 321 000a 0124     		movs	r4, #1
 322 000c 0194     		str	r4, [sp, #4]
 323 000e 0DF11603 		add	r3, sp, #22
 324 0012 0093     		str	r3, [sp]
 325 0014 2346     		mov	r3, r4
 326 0016 0222     		movs	r2, #2
 327 0018 3221     		movs	r1, #50
 328 001a 2846     		mov	r0, r5
 329 001c FFF7FEFF 		bl	HAL_I2C_Mem_Read
 330              	.LVL16:
 176:Src/main.c    ****   HAL_I2C_Mem_Read(&hi2c1,Addr_Accl<<1,Mem_xMSB,1,&xAccl_MSB,1,100);
 331              		.loc 1 176 0
 332 0020 2046     		mov	r0, r4
 333 0022 FFF7FEFF 		bl	BMX_Set_Shadow_dis
 334              	.LVL17:
 177:Src/main.c    ****   BMX_Set_Shadow_dis(is_unavailable);
 335              		.loc 1 177 0
 336 0026 0296     		str	r6, [sp, #8]
ARM GAS  C:\Users\81806\AppData\Local\Temp\cchQkv7R.s 			page 14


 337 0028 0194     		str	r4, [sp, #4]
 338 002a 0DF11703 		add	r3, sp, #23
 339 002e 0093     		str	r3, [sp]
 340 0030 2346     		mov	r3, r4
 341 0032 0322     		movs	r2, #3
 342 0034 3221     		movs	r1, #50
 343 0036 2846     		mov	r0, r5
 344 0038 FFF7FEFF 		bl	HAL_I2C_Mem_Read
 345              	.LVL18:
 178:Src/main.c    ****   
 346              		.loc 1 178 0
 347 003c 0020     		movs	r0, #0
 348 003e FFF7FEFF 		bl	BMX_Set_Shadow_dis
 349              	.LVL19:
 181:Src/main.c    ****   BMX_Set_Shadow_dis(is_available);
 350              		.loc 1 181 0
 351 0042 0296     		str	r6, [sp, #8]
 352 0044 0194     		str	r4, [sp, #4]
 353 0046 05AB     		add	r3, sp, #20
 354 0048 0093     		str	r3, [sp]
 355 004a 2346     		mov	r3, r4
 356 004c 0422     		movs	r2, #4
 357 004e 3221     		movs	r1, #50
 358 0050 2846     		mov	r0, r5
 359 0052 FFF7FEFF 		bl	HAL_I2C_Mem_Read
 360              	.LVL20:
 182:Src/main.c    ****   HAL_I2C_Mem_Read(&hi2c1,Addr_Accl<<1,Mem_yMSB,1,&yAccl_MSB,1,100);
 361              		.loc 1 182 0
 362 0056 2046     		mov	r0, r4
 363 0058 FFF7FEFF 		bl	BMX_Set_Shadow_dis
 364              	.LVL21:
 183:Src/main.c    ****   BMX_Set_Shadow_dis(is_unavailable);
 365              		.loc 1 183 0
 366 005c 0296     		str	r6, [sp, #8]
 367 005e 0194     		str	r4, [sp, #4]
 368 0060 0DF11503 		add	r3, sp, #21
 369 0064 0093     		str	r3, [sp]
 370 0066 2346     		mov	r3, r4
 371 0068 0522     		movs	r2, #5
 372 006a 3221     		movs	r1, #50
 373 006c 2846     		mov	r0, r5
 374 006e FFF7FEFF 		bl	HAL_I2C_Mem_Read
 375              	.LVL22:
 184:Src/main.c    ****   
 376              		.loc 1 184 0
 377 0072 0020     		movs	r0, #0
 378 0074 FFF7FEFF 		bl	BMX_Set_Shadow_dis
 379              	.LVL23:
 186:Src/main.c    ****   BMX_Set_Shadow_dis(is_available);
 380              		.loc 1 186 0
 381 0078 0296     		str	r6, [sp, #8]
 382 007a 0194     		str	r4, [sp, #4]
 383 007c 0DF11203 		add	r3, sp, #18
 384 0080 0093     		str	r3, [sp]
 385 0082 2346     		mov	r3, r4
 386 0084 0622     		movs	r2, #6
 387 0086 3221     		movs	r1, #50
ARM GAS  C:\Users\81806\AppData\Local\Temp\cchQkv7R.s 			page 15


 388 0088 2846     		mov	r0, r5
 389 008a FFF7FEFF 		bl	HAL_I2C_Mem_Read
 390              	.LVL24:
 187:Src/main.c    ****   HAL_I2C_Mem_Read(&hi2c1,Addr_Accl<<1,Mem_zMSB,1,&zAccl_MSB,1,100);
 391              		.loc 1 187 0
 392 008e 2046     		mov	r0, r4
 393 0090 FFF7FEFF 		bl	BMX_Set_Shadow_dis
 394              	.LVL25:
 188:Src/main.c    ****   BMX_Set_Shadow_dis(is_unavailable);
 395              		.loc 1 188 0
 396 0094 0296     		str	r6, [sp, #8]
 397 0096 0194     		str	r4, [sp, #4]
 398 0098 0DF11303 		add	r3, sp, #19
 399 009c 0093     		str	r3, [sp]
 400 009e 2346     		mov	r3, r4
 401 00a0 0722     		movs	r2, #7
 402 00a2 3221     		movs	r1, #50
 403 00a4 2846     		mov	r0, r5
 404 00a6 FFF7FEFF 		bl	HAL_I2C_Mem_Read
 405              	.LVL26:
 189:Src/main.c    **** 
 406              		.loc 1 189 0
 407 00aa 0020     		movs	r0, #0
 408 00ac FFF7FEFF 		bl	BMX_Set_Shadow_dis
 409              	.LVL27:
 192:Src/main.c    ****   yAccl = ((yAccl_MSB*256) + (yAccl_LSB & 0xF0))/16;
 410              		.loc 1 192 0
 411 00b0 9FED347A 		vldr.32	s14, .L30+12
 193:Src/main.c    ****   if(yAccl>2047) yAccl -= 4096;
 412              		.loc 1 193 0
 413 00b4 9DF81520 		ldrb	r2, [sp, #21]	@ zero_extendqisi2
 414 00b8 9DF81430 		ldrb	r3, [sp, #20]	@ zero_extendqisi2
 415 00bc 03F0F003 		and	r3, r3, #240
 416 00c0 03EB0223 		add	r3, r3, r2, lsl #8
 417 00c4 1B11     		asrs	r3, r3, #4
 418 00c6 07EE903A 		vmov	s15, r3	@ int
 419 00ca F8EEE77A 		vcvt.f32.s32	s15, s15
 420 00ce 2E4B     		ldr	r3, .L30+16
 421 00d0 C3ED007A 		vstr.32	s15, [r3]
 194:Src/main.c    ****   xAccl = ((zAccl_MSB*256) + (zAccl_LSB & 0xF0))/16;
 422              		.loc 1 194 0
 423 00d4 F4EEC77A 		vcmpe.f32	s15, s14
 424 00d8 F1EE10FA 		vmrs	APSR_nzcv, FPSCR
 425 00dc 05DD     		ble	.L21
 194:Src/main.c    ****   xAccl = ((zAccl_MSB*256) + (zAccl_LSB & 0xF0))/16;
 426              		.loc 1 194 0 is_stmt 0 discriminator 1
 427 00de 9FED2B7A 		vldr.32	s14, .L30+20
 428 00e2 77EEC77A 		vsub.f32	s15, s15, s14
 429 00e6 C3ED007A 		vstr.32	s15, [r3]
 430              	.L21:
 195:Src/main.c    ****   if(zAccl>2047) zAccl -= 4096;
 431              		.loc 1 195 0 is_stmt 1
 432 00ea 9DF81320 		ldrb	r2, [sp, #19]	@ zero_extendqisi2
 433 00ee 9DF81230 		ldrb	r3, [sp, #18]	@ zero_extendqisi2
 434 00f2 03F0F003 		and	r3, r3, #240
 435 00f6 03EB0223 		add	r3, r3, r2, lsl #8
 436 00fa 1B11     		asrs	r3, r3, #4
ARM GAS  C:\Users\81806\AppData\Local\Temp\cchQkv7R.s 			page 16


 437 00fc 07EE903A 		vmov	s15, r3	@ int
 438 0100 F8EEE77A 		vcvt.f32.s32	s15, s15
 196:Src/main.c    ****   
 439              		.loc 1 196 0
 440 0104 224B     		ldr	r3, .L30+24
 441 0106 93ED007A 		vldr.32	s14, [r3]
 442 010a DFED1E6A 		vldr.32	s13, .L30+12
 443 010e B4EEE67A 		vcmpe.f32	s14, s13
 444 0112 F1EE10FA 		vmrs	APSR_nzcv, FPSCR
 445 0116 05DD     		ble	.L24
 196:Src/main.c    ****   
 446              		.loc 1 196 0 is_stmt 0 discriminator 1
 447 0118 DFED1C6A 		vldr.32	s13, .L30+20
 448 011c 37EE667A 		vsub.f32	s14, s14, s13
 449 0120 83ED007A 		vstr.32	s14, [r3]
 450              	.L24:
 198:Src/main.c    ****   yAccl = yAccl*0.0098;
 451              		.loc 1 198 0 is_stmt 1
 452 0124 17EE900A 		vmov	r0, s15
 453 0128 FFF7FEFF 		bl	__aeabi_f2d
 454              	.LVL28:
 455 012c 12A3     		adr	r3, .L30
 456 012e D3E90023 		ldrd	r2, [r3]
 457 0132 FFF7FEFF 		bl	__aeabi_dmul
 458              	.LVL29:
 459 0136 FFF7FEFF 		bl	__aeabi_d2f
 460              	.LVL30:
 461 013a 164B     		ldr	r3, .L30+28
 462 013c 1860     		str	r0, [r3]	@ float
 199:Src/main.c    ****   zAccl = zAccl*0.0098;
 463              		.loc 1 199 0
 464 013e 124C     		ldr	r4, .L30+16
 465 0140 2068     		ldr	r0, [r4]	@ float
 466 0142 FFF7FEFF 		bl	__aeabi_f2d
 467              	.LVL31:
 468 0146 0CA3     		adr	r3, .L30
 469 0148 D3E90023 		ldrd	r2, [r3]
 470 014c FFF7FEFF 		bl	__aeabi_dmul
 471              	.LVL32:
 472 0150 FFF7FEFF 		bl	__aeabi_d2f
 473              	.LVL33:
 474 0154 2060     		str	r0, [r4]	@ float
 200:Src/main.c    **** }
 475              		.loc 1 200 0
 476 0156 0E4C     		ldr	r4, .L30+24
 477 0158 2068     		ldr	r0, [r4]	@ float
 478 015a FFF7FEFF 		bl	__aeabi_f2d
 479              	.LVL34:
 480 015e 06A3     		adr	r3, .L30
 481 0160 D3E90023 		ldrd	r2, [r3]
 482 0164 FFF7FEFF 		bl	__aeabi_dmul
 483              	.LVL35:
 484 0168 FFF7FEFF 		bl	__aeabi_d2f
 485              	.LVL36:
 486 016c 2060     		str	r0, [r4]	@ float
 201:Src/main.c    **** 
 487              		.loc 1 201 0
ARM GAS  C:\Users\81806\AppData\Local\Temp\cchQkv7R.s 			page 17


 488 016e 06B0     		add	sp, sp, #24
 489              	.LCFI12:
 490              		.cfi_def_cfa_offset 16
 491              		@ sp needed
 492 0170 70BD     		pop	{r4, r5, r6, pc}
 493              	.L31:
 494 0172 00BFAFF3 		.align	3
 494      0080
 495              	.L30:
 496 0178 6EA301BC 		.word	-1140743314
 497 017c 0512843F 		.word	1065619973
 498 0180 00000000 		.word	hi2c1
 499 0184 00E0FF44 		.word	1157619712
 500 0188 00000000 		.word	.LANCHOR1
 501 018c 00008045 		.word	1166016512
 502 0190 00000000 		.word	.LANCHOR2
 503 0194 00000000 		.word	.LANCHOR0
 504              		.cfi_endproc
 505              	.LFE128:
 507              		.section	.text.BMX_Check_connection,"ax",%progbits
 508              		.align	1
 509              		.global	BMX_Check_connection
 510              		.syntax unified
 511              		.thumb
 512              		.thumb_func
 513              		.fpu fpv4-sp-d16
 515              	BMX_Check_connection:
 516              	.LFB130:
 212:Src/main.c    ****   uint8_t r_data;
 517              		.loc 1 212 0
 518              		.cfi_startproc
 519              		@ args = 0, pretend = 0, frame = 104
 520              		@ frame_needed = 0, uses_anonymous_args = 0
 521 0000 00B5     		push	{lr}
 522              	.LCFI13:
 523              		.cfi_def_cfa_offset 4
 524              		.cfi_offset 14, -4
 525 0002 9FB0     		sub	sp, sp, #124
 526              	.LCFI14:
 527              		.cfi_def_cfa_offset 128
 216:Src/main.c    ****   if (r_data == 0xFA) sprintf(buff,"Connection available\n",r_data);
 528              		.loc 1 216 0
 529 0004 6423     		movs	r3, #100
 530 0006 0293     		str	r3, [sp, #8]
 531 0008 0123     		movs	r3, #1
 532 000a 0193     		str	r3, [sp, #4]
 533 000c 0DF17702 		add	r2, sp, #119
 534 0010 0092     		str	r2, [sp]
 535 0012 0022     		movs	r2, #0
 536 0014 3221     		movs	r1, #50
 537 0016 0E48     		ldr	r0, .L37
 538 0018 FFF7FEFF 		bl	HAL_I2C_Mem_Read
 539              	.LVL37:
 217:Src/main.c    ****   else if (r_data != 0xFA) sprintf(buff,"Connection unavailable\n",r_data);  
 540              		.loc 1 217 0
 541 001c 9DF87720 		ldrb	r2, [sp, #119]	@ zero_extendqisi2
 542 0020 FA2A     		cmp	r2, #250
ARM GAS  C:\Users\81806\AppData\Local\Temp\cchQkv7R.s 			page 18


 543 0022 0FD0     		beq	.L36
 218:Src/main.c    ****   HAL_UART_Transmit (&huart2,(uint8_t*)(&buff[0]),strlen(&k[0]),100);
 544              		.loc 1 218 0 discriminator 1
 545 0024 0B49     		ldr	r1, .L37+4
 546 0026 04A8     		add	r0, sp, #16
 547 0028 FFF7FEFF 		bl	sprintf
 548              	.LVL38:
 549              	.L34:
 219:Src/main.c    **** }
 550              		.loc 1 219 0
 551 002c 0A48     		ldr	r0, .L37+8
 552 002e FFF7FEFF 		bl	strlen
 553              	.LVL39:
 554 0032 6423     		movs	r3, #100
 555 0034 82B2     		uxth	r2, r0
 556 0036 04A9     		add	r1, sp, #16
 557 0038 0848     		ldr	r0, .L37+12
 558 003a FFF7FEFF 		bl	HAL_UART_Transmit
 559              	.LVL40:
 220:Src/main.c    ****                 
 560              		.loc 1 220 0
 561 003e 1FB0     		add	sp, sp, #124
 562              	.LCFI15:
 563              		.cfi_remember_state
 564              		.cfi_def_cfa_offset 4
 565              		@ sp needed
 566 0040 5DF804FB 		ldr	pc, [sp], #4
 567              	.L36:
 568              	.LCFI16:
 569              		.cfi_restore_state
 217:Src/main.c    ****   else if (r_data != 0xFA) sprintf(buff,"Connection unavailable\n",r_data);  
 570              		.loc 1 217 0 discriminator 1
 571 0044 0649     		ldr	r1, .L37+16
 572 0046 04A8     		add	r0, sp, #16
 573 0048 FFF7FEFF 		bl	sprintf
 574              	.LVL41:
 575 004c EEE7     		b	.L34
 576              	.L38:
 577 004e 00BF     		.align	2
 578              	.L37:
 579 0050 00000000 		.word	hi2c1
 580 0054 18000000 		.word	.LC1
 581 0058 00000000 		.word	k
 582 005c 00000000 		.word	huart2
 583 0060 00000000 		.word	.LC0
 584              		.cfi_endproc
 585              	.LFE130:
 587              		.global	__aeabi_i2d
 588              		.global	__aeabi_dsub
 589              		.section	.text.Show_float,"ax",%progbits
 590              		.align	1
 591              		.global	Show_float
 592              		.syntax unified
 593              		.thumb
 594              		.thumb_func
 595              		.fpu fpv4-sp-d16
 597              	Show_float:
ARM GAS  C:\Users\81806\AppData\Local\Temp\cchQkv7R.s 			page 19


 598              	.LFB131:
 222:Src/main.c    ****   char *tempsign = (value < 0) ? "-":"";
 599              		.loc 1 222 0
 600              		.cfi_startproc
 601              		@ args = 0, pretend = 0, frame = 8
 602              		@ frame_needed = 0, uses_anonymous_args = 0
 603              	.LVL42:
 604 0000 F0B5     		push	{r4, r5, r6, r7, lr}
 605              	.LCFI17:
 606              		.cfi_def_cfa_offset 20
 607              		.cfi_offset 4, -20
 608              		.cfi_offset 5, -16
 609              		.cfi_offset 6, -12
 610              		.cfi_offset 7, -8
 611              		.cfi_offset 14, -4
 612 0002 2DED028B 		vpush.64	{d8}
 613              	.LCFI18:
 614              		.cfi_def_cfa_offset 28
 615              		.cfi_offset 80, -28
 616              		.cfi_offset 81, -24
 617 0006 85B0     		sub	sp, sp, #20
 618              	.LCFI19:
 619              		.cfi_def_cfa_offset 48
 223:Src/main.c    ****   double tempval = (value<0) ? -1*xAccl:xAccl;
 620              		.loc 1 223 0
 621 0008 B5EEC00A 		vcmpe.f32	s0, #0
 622 000c F1EE10FA 		vmrs	APSR_nzcv, FPSCR
 623 0010 3CD4     		bmi	.L51
 624 0012 224D     		ldr	r5, .L53
 625              	.L40:
 626              	.LVL43:
 224:Src/main.c    ****   int tempInt1 = (int)tempval;
 627              		.loc 1 224 0 discriminator 4
 628 0014 B5EEC00A 		vcmpe.f32	s0, #0
 629 0018 F1EE10FA 		vmrs	APSR_nzcv, FPSCR
 630 001c 38D4     		bmi	.L52
 224:Src/main.c    ****   int tempInt1 = (int)tempval;
 631              		.loc 1 224 0 is_stmt 0 discriminator 2
 632 001e 204B     		ldr	r3, .L53+4
 633 0020 93ED008A 		vldr.32	s16, [r3]
 634              	.L44:
 224:Src/main.c    ****   int tempInt1 = (int)tempval;
 635              		.loc 1 224 0 discriminator 4
 636 0024 18EE100A 		vmov	r0, s16
 637 0028 FFF7FEFF 		bl	__aeabi_f2d
 638              	.LVL44:
 639 002c 0646     		mov	r6, r0
 640 002e 0F46     		mov	r7, r1
 641              	.LVL45:
 225:Src/main.c    ****   float tempfrac = tempval - tempInt1;
 642              		.loc 1 225 0 is_stmt 1 discriminator 4
 643 0030 FDEEC87A 		vcvt.s32.f32	s15, s16
 644 0034 CDED037A 		vstr.32	s15, [sp, #12]	@ int
 645              	.LVL46:
 226:Src/main.c    ****   int tempInt2 = trunc(tempfrac*100000);  
 646              		.loc 1 226 0 discriminator 4
 647 0038 17EE900A 		vmov	r0, s15	@ int
ARM GAS  C:\Users\81806\AppData\Local\Temp\cchQkv7R.s 			page 20


 648 003c FFF7FEFF 		bl	__aeabi_i2d
 649              	.LVL47:
 650 0040 0246     		mov	r2, r0
 651 0042 0B46     		mov	r3, r1
 652 0044 3046     		mov	r0, r6
 653 0046 3946     		mov	r1, r7
 654 0048 FFF7FEFF 		bl	__aeabi_dsub
 655              	.LVL48:
 656 004c FFF7FEFF 		bl	__aeabi_d2f
 657              	.LVL49:
 227:Src/main.c    **** 
 658              		.loc 1 227 0 discriminator 4
 659 0050 DFED147A 		vldr.32	s15, .L53+8
 660 0054 07EE100A 		vmov	s14, r0
 661 0058 67EE277A 		vmul.f32	s15, s14, s15
 662 005c FDEEE77A 		vcvt.s32.f32	s15, s15
 663              	.LVL50:
 229:Src/main.c    ****   HAL_UART_Transmit (&huart2,(uint8_t*)(&s[0]),strlen(&s[0]),100);
 664              		.loc 1 229 0 discriminator 4
 665 0060 114C     		ldr	r4, .L53+12
 666 0062 CDED007A 		vstr.32	s15, [sp]	@ int
 667 0066 039B     		ldr	r3, [sp, #12]
 668 0068 2A46     		mov	r2, r5
 669 006a 1049     		ldr	r1, .L53+16
 670 006c 2046     		mov	r0, r4
 671              	.LVL51:
 672 006e FFF7FEFF 		bl	sprintf
 673              	.LVL52:
 230:Src/main.c    **** }
 674              		.loc 1 230 0 discriminator 4
 675 0072 2046     		mov	r0, r4
 676 0074 FFF7FEFF 		bl	strlen
 677              	.LVL53:
 678 0078 6423     		movs	r3, #100
 679 007a 82B2     		uxth	r2, r0
 680 007c 2146     		mov	r1, r4
 681 007e 0C48     		ldr	r0, .L53+20
 682 0080 FFF7FEFF 		bl	HAL_UART_Transmit
 683              	.LVL54:
 231:Src/main.c    **** 
 684              		.loc 1 231 0 discriminator 4
 685 0084 05B0     		add	sp, sp, #20
 686              	.LCFI20:
 687              		.cfi_remember_state
 688              		.cfi_def_cfa_offset 28
 689              		@ sp needed
 690 0086 BDEC028B 		vldm	sp!, {d8}
 691              	.LCFI21:
 692              		.cfi_restore 80
 693              		.cfi_restore 81
 694              		.cfi_def_cfa_offset 20
 695 008a F0BD     		pop	{r4, r5, r6, r7, pc}
 696              	.LVL55:
 697              	.L51:
 698              	.LCFI22:
 699              		.cfi_restore_state
 223:Src/main.c    ****   double tempval = (value<0) ? -1*xAccl:xAccl;
ARM GAS  C:\Users\81806\AppData\Local\Temp\cchQkv7R.s 			page 21


 700              		.loc 1 223 0
 701 008c 094D     		ldr	r5, .L53+24
 702 008e C1E7     		b	.L40
 703              	.LVL56:
 704              	.L52:
 224:Src/main.c    ****   int tempInt1 = (int)tempval;
 705              		.loc 1 224 0 discriminator 1
 706 0090 034B     		ldr	r3, .L53+4
 707 0092 93ED008A 		vldr.32	s16, [r3]
 708 0096 B1EE488A 		vneg.f32	s16, s16
 709 009a C3E7     		b	.L44
 710              	.L54:
 711              		.align	2
 712              	.L53:
 713 009c 04000000 		.word	.LC3
 714 00a0 00000000 		.word	.LANCHOR0
 715 00a4 0050C347 		.word	1203982336
 716 00a8 00000000 		.word	s
 717 00ac 08000000 		.word	.LC4
 718 00b0 00000000 		.word	huart2
 719 00b4 00000000 		.word	.LC2
 720              		.cfi_endproc
 721              	.LFE131:
 723              		.section	.text._Error_Handler,"ax",%progbits
 724              		.align	1
 725              		.global	_Error_Handler
 726              		.syntax unified
 727              		.thumb
 728              		.thumb_func
 729              		.fpu fpv4-sp-d16
 731              	_Error_Handler:
 732              	.LFB136:
 392:Src/main.c    **** 
 393:Src/main.c    **** /* USER CODE BEGIN 4 */
 394:Src/main.c    **** 
 395:Src/main.c    **** /* USER CODE END 4 */
 396:Src/main.c    **** 
 397:Src/main.c    **** /**
 398:Src/main.c    ****   * @brief  This function is executed in case of error occurrence.
 399:Src/main.c    ****   * @param  file: The file name as string.
 400:Src/main.c    ****   * @param  line: The line in file as a number.
 401:Src/main.c    ****   * @retval None
 402:Src/main.c    ****   */
 403:Src/main.c    **** void _Error_Handler(char *file, int line)
 404:Src/main.c    **** {
 733              		.loc 1 404 0
 734              		.cfi_startproc
 735              		@ Volatile: function does not return.
 736              		@ args = 0, pretend = 0, frame = 0
 737              		@ frame_needed = 0, uses_anonymous_args = 0
 738              		@ link register save eliminated.
 739              	.LVL57:
 740              	.L56:
 741 0000 FEE7     		b	.L56
 742              		.cfi_endproc
 743              	.LFE136:
 745              		.section	.text.MX_USART2_UART_Init,"ax",%progbits
ARM GAS  C:\Users\81806\AppData\Local\Temp\cchQkv7R.s 			page 22


 746              		.align	1
 747              		.syntax unified
 748              		.thumb
 749              		.thumb_func
 750              		.fpu fpv4-sp-d16
 752              	MX_USART2_UART_Init:
 753              	.LFB134:
 338:Src/main.c    **** 
 754              		.loc 1 338 0
 755              		.cfi_startproc
 756              		@ args = 0, pretend = 0, frame = 0
 757              		@ frame_needed = 0, uses_anonymous_args = 0
 338:Src/main.c    **** 
 758              		.loc 1 338 0
 759 0000 08B5     		push	{r3, lr}
 760              	.LCFI23:
 761              		.cfi_def_cfa_offset 8
 762              		.cfi_offset 3, -8
 763              		.cfi_offset 14, -4
 340:Src/main.c    ****   huart2.Init.BaudRate = 115200;
 764              		.loc 1 340 0
 765 0002 0C48     		ldr	r0, .L61
 766 0004 0C4B     		ldr	r3, .L61+4
 767 0006 0360     		str	r3, [r0]
 341:Src/main.c    ****   huart2.Init.WordLength = UART_WORDLENGTH_8B;
 768              		.loc 1 341 0
 769 0008 4FF4E133 		mov	r3, #115200
 770 000c 4360     		str	r3, [r0, #4]
 342:Src/main.c    ****   huart2.Init.StopBits = UART_STOPBITS_1;
 771              		.loc 1 342 0
 772 000e 0023     		movs	r3, #0
 773 0010 8360     		str	r3, [r0, #8]
 343:Src/main.c    ****   huart2.Init.Parity = UART_PARITY_NONE;
 774              		.loc 1 343 0
 775 0012 C360     		str	r3, [r0, #12]
 344:Src/main.c    ****   huart2.Init.Mode = UART_MODE_TX_RX;
 776              		.loc 1 344 0
 777 0014 0361     		str	r3, [r0, #16]
 345:Src/main.c    ****   huart2.Init.HwFlowCtl = UART_HWCONTROL_NONE;
 778              		.loc 1 345 0
 779 0016 0C22     		movs	r2, #12
 780 0018 4261     		str	r2, [r0, #20]
 346:Src/main.c    ****   huart2.Init.OverSampling = UART_OVERSAMPLING_16;
 781              		.loc 1 346 0
 782 001a 8361     		str	r3, [r0, #24]
 347:Src/main.c    ****   huart2.Init.OneBitSampling = UART_ONE_BIT_SAMPLE_DISABLE;
 783              		.loc 1 347 0
 784 001c C361     		str	r3, [r0, #28]
 348:Src/main.c    ****   huart2.AdvancedInit.AdvFeatureInit = UART_ADVFEATURE_NO_INIT;
 785              		.loc 1 348 0
 786 001e 0362     		str	r3, [r0, #32]
 349:Src/main.c    ****   if (HAL_UART_Init(&huart2) != HAL_OK)
 787              		.loc 1 349 0
 788 0020 4362     		str	r3, [r0, #36]
 350:Src/main.c    ****   {
 789              		.loc 1 350 0
 790 0022 FFF7FEFF 		bl	HAL_UART_Init
ARM GAS  C:\Users\81806\AppData\Local\Temp\cchQkv7R.s 			page 23


 791              	.LVL58:
 792 0026 00B9     		cbnz	r0, .L60
 355:Src/main.c    **** 
 793              		.loc 1 355 0
 794 0028 08BD     		pop	{r3, pc}
 795              	.L60:
 352:Src/main.c    ****   }
 796              		.loc 1 352 0
 797 002a 4FF4B071 		mov	r1, #352
 798 002e 0348     		ldr	r0, .L61+8
 799 0030 FFF7FEFF 		bl	_Error_Handler
 800              	.LVL59:
 801              	.L62:
 802              		.align	2
 803              	.L61:
 804 0034 00000000 		.word	huart2
 805 0038 00440040 		.word	1073759232
 806 003c 00000000 		.word	.LC5
 807              		.cfi_endproc
 808              	.LFE134:
 810              		.section	.text.MX_I2C1_Init,"ax",%progbits
 811              		.align	1
 812              		.syntax unified
 813              		.thumb
 814              		.thumb_func
 815              		.fpu fpv4-sp-d16
 817              	MX_I2C1_Init:
 818              	.LFB133:
 304:Src/main.c    **** 
 819              		.loc 1 304 0
 820              		.cfi_startproc
 821              		@ args = 0, pretend = 0, frame = 0
 822              		@ frame_needed = 0, uses_anonymous_args = 0
 823 0000 08B5     		push	{r3, lr}
 824              	.LCFI24:
 825              		.cfi_def_cfa_offset 8
 826              		.cfi_offset 3, -8
 827              		.cfi_offset 14, -4
 306:Src/main.c    ****   hi2c1.Init.Timing = 0x10909CEC;
 828              		.loc 1 306 0
 829 0002 1548     		ldr	r0, .L71
 830 0004 154B     		ldr	r3, .L71+4
 831 0006 0360     		str	r3, [r0]
 307:Src/main.c    ****   hi2c1.Init.OwnAddress1 = 0;
 832              		.loc 1 307 0
 833 0008 154B     		ldr	r3, .L71+8
 834 000a 4360     		str	r3, [r0, #4]
 308:Src/main.c    ****   hi2c1.Init.AddressingMode = I2C_ADDRESSINGMODE_7BIT;
 835              		.loc 1 308 0
 836 000c 0023     		movs	r3, #0
 837 000e 8360     		str	r3, [r0, #8]
 309:Src/main.c    ****   hi2c1.Init.DualAddressMode = I2C_DUALADDRESS_DISABLE;
 838              		.loc 1 309 0
 839 0010 0122     		movs	r2, #1
 840 0012 C260     		str	r2, [r0, #12]
 310:Src/main.c    ****   hi2c1.Init.OwnAddress2 = 0;
 841              		.loc 1 310 0
ARM GAS  C:\Users\81806\AppData\Local\Temp\cchQkv7R.s 			page 24


 842 0014 0361     		str	r3, [r0, #16]
 311:Src/main.c    ****   hi2c1.Init.OwnAddress2Masks = I2C_OA2_NOMASK;
 843              		.loc 1 311 0
 844 0016 4361     		str	r3, [r0, #20]
 312:Src/main.c    ****   hi2c1.Init.GeneralCallMode = I2C_GENERALCALL_DISABLE;
 845              		.loc 1 312 0
 846 0018 8361     		str	r3, [r0, #24]
 313:Src/main.c    ****   hi2c1.Init.NoStretchMode = I2C_NOSTRETCH_DISABLE;
 847              		.loc 1 313 0
 848 001a C361     		str	r3, [r0, #28]
 314:Src/main.c    ****   if (HAL_I2C_Init(&hi2c1) != HAL_OK)
 849              		.loc 1 314 0
 850 001c 0362     		str	r3, [r0, #32]
 315:Src/main.c    ****   {
 851              		.loc 1 315 0
 852 001e FFF7FEFF 		bl	HAL_I2C_Init
 853              	.LVL60:
 854 0022 50B9     		cbnz	r0, .L68
 322:Src/main.c    ****   {
 855              		.loc 1 322 0
 856 0024 0021     		movs	r1, #0
 857 0026 0C48     		ldr	r0, .L71
 858 0028 FFF7FEFF 		bl	HAL_I2CEx_ConfigAnalogFilter
 859              	.LVL61:
 860 002c 50B9     		cbnz	r0, .L69
 329:Src/main.c    ****   {
 861              		.loc 1 329 0
 862 002e 0021     		movs	r1, #0
 863 0030 0948     		ldr	r0, .L71
 864 0032 FFF7FEFF 		bl	HAL_I2CEx_ConfigDigitalFilter
 865              	.LVL62:
 866 0036 50B9     		cbnz	r0, .L70
 334:Src/main.c    **** 
 867              		.loc 1 334 0
 868 0038 08BD     		pop	{r3, pc}
 869              	.L68:
 317:Src/main.c    ****   }
 870              		.loc 1 317 0
 871 003a 40F23D11 		movw	r1, #317
 872 003e 0948     		ldr	r0, .L71+12
 873 0040 FFF7FEFF 		bl	_Error_Handler
 874              	.LVL63:
 875              	.L69:
 324:Src/main.c    ****   }
 876              		.loc 1 324 0
 877 0044 4FF4A271 		mov	r1, #324
 878 0048 0648     		ldr	r0, .L71+12
 879 004a FFF7FEFF 		bl	_Error_Handler
 880              	.LVL64:
 881              	.L70:
 331:Src/main.c    ****   }
 882              		.loc 1 331 0
 883 004e 40F24B11 		movw	r1, #331
 884 0052 0448     		ldr	r0, .L71+12
 885 0054 FFF7FEFF 		bl	_Error_Handler
 886              	.LVL65:
 887              	.L72:
ARM GAS  C:\Users\81806\AppData\Local\Temp\cchQkv7R.s 			page 25


 888              		.align	2
 889              	.L71:
 890 0058 00000000 		.word	hi2c1
 891 005c 00540040 		.word	1073763328
 892 0060 EC9C9010 		.word	277912812
 893 0064 00000000 		.word	.LC5
 894              		.cfi_endproc
 895              	.LFE133:
 897              		.section	.text.SystemClock_Config,"ax",%progbits
 898              		.align	1
 899              		.global	SystemClock_Config
 900              		.syntax unified
 901              		.thumb
 902              		.thumb_func
 903              		.fpu fpv4-sp-d16
 905              	SystemClock_Config:
 906              	.LFB132:
 238:Src/main.c    **** 
 907              		.loc 1 238 0
 908              		.cfi_startproc
 909              		@ args = 0, pretend = 0, frame = 224
 910              		@ frame_needed = 0, uses_anonymous_args = 0
 911 0000 00B5     		push	{lr}
 912              	.LCFI25:
 913              		.cfi_def_cfa_offset 4
 914              		.cfi_offset 14, -4
 915 0002 B9B0     		sub	sp, sp, #228
 916              	.LCFI26:
 917              		.cfi_def_cfa_offset 232
 246:Src/main.c    ****   RCC_OscInitStruct.HSIState = RCC_HSI_ON;
 918              		.loc 1 246 0
 919 0004 0223     		movs	r3, #2
 920 0006 2793     		str	r3, [sp, #156]
 247:Src/main.c    ****   RCC_OscInitStruct.HSICalibrationValue = 16;
 921              		.loc 1 247 0
 922 0008 4FF48072 		mov	r2, #256
 923 000c 2A92     		str	r2, [sp, #168]
 248:Src/main.c    ****   RCC_OscInitStruct.PLL.PLLState = RCC_PLL_ON;
 924              		.loc 1 248 0
 925 000e 1022     		movs	r2, #16
 926 0010 2B92     		str	r2, [sp, #172]
 249:Src/main.c    ****   RCC_OscInitStruct.PLL.PLLSource = RCC_PLLSOURCE_HSI;
 927              		.loc 1 249 0
 928 0012 3193     		str	r3, [sp, #196]
 250:Src/main.c    ****   RCC_OscInitStruct.PLL.PLLM = 1;
 929              		.loc 1 250 0
 930 0014 3293     		str	r3, [sp, #200]
 251:Src/main.c    ****   RCC_OscInitStruct.PLL.PLLN = 10;
 931              		.loc 1 251 0
 932 0016 0122     		movs	r2, #1
 933 0018 3392     		str	r2, [sp, #204]
 252:Src/main.c    ****   RCC_OscInitStruct.PLL.PLLP = RCC_PLLP_DIV7;
 934              		.loc 1 252 0
 935 001a 0A22     		movs	r2, #10
 936 001c 3492     		str	r2, [sp, #208]
 253:Src/main.c    ****   RCC_OscInitStruct.PLL.PLLQ = RCC_PLLQ_DIV2;
 937              		.loc 1 253 0
ARM GAS  C:\Users\81806\AppData\Local\Temp\cchQkv7R.s 			page 26


 938 001e 0722     		movs	r2, #7
 939 0020 3592     		str	r2, [sp, #212]
 254:Src/main.c    ****   RCC_OscInitStruct.PLL.PLLR = RCC_PLLR_DIV2;
 940              		.loc 1 254 0
 941 0022 3693     		str	r3, [sp, #216]
 255:Src/main.c    ****   if (HAL_RCC_OscConfig(&RCC_OscInitStruct) != HAL_OK)
 942              		.loc 1 255 0
 943 0024 3793     		str	r3, [sp, #220]
 256:Src/main.c    ****   {
 944              		.loc 1 256 0
 945 0026 27A8     		add	r0, sp, #156
 946 0028 FFF7FEFF 		bl	HAL_RCC_OscConfig
 947              	.LVL66:
 948 002c 70BB     		cbnz	r0, .L79
 263:Src/main.c    ****                               |RCC_CLOCKTYPE_PCLK1|RCC_CLOCKTYPE_PCLK2;
 949              		.loc 1 263 0
 950 002e 0F23     		movs	r3, #15
 951 0030 2293     		str	r3, [sp, #136]
 265:Src/main.c    ****   RCC_ClkInitStruct.AHBCLKDivider = RCC_SYSCLK_DIV1;
 952              		.loc 1 265 0
 953 0032 0323     		movs	r3, #3
 954 0034 2393     		str	r3, [sp, #140]
 266:Src/main.c    ****   RCC_ClkInitStruct.APB1CLKDivider = RCC_HCLK_DIV1;
 955              		.loc 1 266 0
 956 0036 0023     		movs	r3, #0
 957 0038 2493     		str	r3, [sp, #144]
 267:Src/main.c    ****   RCC_ClkInitStruct.APB2CLKDivider = RCC_HCLK_DIV1;
 958              		.loc 1 267 0
 959 003a 2593     		str	r3, [sp, #148]
 268:Src/main.c    **** 
 960              		.loc 1 268 0
 961 003c 2693     		str	r3, [sp, #152]
 270:Src/main.c    ****   {
 962              		.loc 1 270 0
 963 003e 0421     		movs	r1, #4
 964 0040 22A8     		add	r0, sp, #136
 965 0042 FFF7FEFF 		bl	HAL_RCC_ClockConfig
 966              	.LVL67:
 967 0046 30BB     		cbnz	r0, .L80
 275:Src/main.c    ****   PeriphClkInit.Usart2ClockSelection = RCC_USART2CLKSOURCE_PCLK1;
 968              		.loc 1 275 0
 969 0048 4223     		movs	r3, #66
 970 004a 0093     		str	r3, [sp]
 276:Src/main.c    ****   PeriphClkInit.I2c1ClockSelection = RCC_I2C1CLKSOURCE_PCLK1;
 971              		.loc 1 276 0
 972 004c 0023     		movs	r3, #0
 973 004e 0F93     		str	r3, [sp, #60]
 277:Src/main.c    ****   if (HAL_RCCEx_PeriphCLKConfig(&PeriphClkInit) != HAL_OK)
 974              		.loc 1 277 0
 975 0050 1493     		str	r3, [sp, #80]
 278:Src/main.c    ****   {
 976              		.loc 1 278 0
 977 0052 6846     		mov	r0, sp
 978 0054 FFF7FEFF 		bl	HAL_RCCEx_PeriphCLKConfig
 979              	.LVL68:
 980 0058 10BB     		cbnz	r0, .L81
 285:Src/main.c    ****   {
ARM GAS  C:\Users\81806\AppData\Local\Temp\cchQkv7R.s 			page 27


 981              		.loc 1 285 0
 982 005a 4FF40070 		mov	r0, #512
 983 005e FFF7FEFF 		bl	HAL_PWREx_ControlVoltageScaling
 984              	.LVL69:
 985 0062 10BB     		cbnz	r0, .L82
 292:Src/main.c    **** 
 986              		.loc 1 292 0
 987 0064 FFF7FEFF 		bl	HAL_RCC_GetHCLKFreq
 988              	.LVL70:
 989 0068 124B     		ldr	r3, .L83
 990 006a A3FB0030 		umull	r3, r0, r3, r0
 991 006e 8009     		lsrs	r0, r0, #6
 992 0070 FFF7FEFF 		bl	HAL_SYSTICK_Config
 993              	.LVL71:
 296:Src/main.c    **** 
 994              		.loc 1 296 0
 995 0074 0420     		movs	r0, #4
 996 0076 FFF7FEFF 		bl	HAL_SYSTICK_CLKSourceConfig
 997              	.LVL72:
 299:Src/main.c    **** }
 998              		.loc 1 299 0
 999 007a 0022     		movs	r2, #0
 1000 007c 1146     		mov	r1, r2
 1001 007e 4FF0FF30 		mov	r0, #-1
 1002 0082 FFF7FEFF 		bl	HAL_NVIC_SetPriority
 1003              	.LVL73:
 300:Src/main.c    **** 
 1004              		.loc 1 300 0
 1005 0086 39B0     		add	sp, sp, #228
 1006              	.LCFI27:
 1007              		.cfi_remember_state
 1008              		.cfi_def_cfa_offset 4
 1009              		@ sp needed
 1010 0088 5DF804FB 		ldr	pc, [sp], #4
 1011              	.L79:
 1012              	.LCFI28:
 1013              		.cfi_restore_state
 258:Src/main.c    ****   }
 1014              		.loc 1 258 0
 1015 008c 4FF48171 		mov	r1, #258
 1016 0090 0948     		ldr	r0, .L83+4
 1017 0092 FFF7FEFF 		bl	_Error_Handler
 1018              	.LVL74:
 1019              	.L80:
 272:Src/main.c    ****   }
 1020              		.loc 1 272 0
 1021 0096 4FF48871 		mov	r1, #272
 1022 009a 0748     		ldr	r0, .L83+4
 1023 009c FFF7FEFF 		bl	_Error_Handler
 1024              	.LVL75:
 1025              	.L81:
 280:Src/main.c    ****   }
 1026              		.loc 1 280 0
 1027 00a0 4FF48C71 		mov	r1, #280
 1028 00a4 0448     		ldr	r0, .L83+4
 1029 00a6 FFF7FEFF 		bl	_Error_Handler
 1030              	.LVL76:
ARM GAS  C:\Users\81806\AppData\Local\Temp\cchQkv7R.s 			page 28


 1031              	.L82:
 287:Src/main.c    ****   }
 1032              		.loc 1 287 0
 1033 00aa 40F21F11 		movw	r1, #287
 1034 00ae 0248     		ldr	r0, .L83+4
 1035 00b0 FFF7FEFF 		bl	_Error_Handler
 1036              	.LVL77:
 1037              	.L84:
 1038              		.align	2
 1039              	.L83:
 1040 00b4 D34D6210 		.word	274877907
 1041 00b8 00000000 		.word	.LC5
 1042              		.cfi_endproc
 1043              	.LFE132:
 1045              		.section	.text.main,"ax",%progbits
 1046              		.align	1
 1047              		.global	main
 1048              		.syntax unified
 1049              		.thumb
 1050              		.thumb_func
 1051              		.fpu fpv4-sp-d16
 1053              	main:
 1054              	.LFB126:
  89:Src/main.c    ****   /* USER CODE BEGIN 1 */
 1055              		.loc 1 89 0
 1056              		.cfi_startproc
 1057              		@ Volatile: function does not return.
 1058              		@ args = 0, pretend = 0, frame = 0
 1059              		@ frame_needed = 0, uses_anonymous_args = 0
 1060 0000 08B5     		push	{r3, lr}
 1061              	.LCFI29:
 1062              		.cfi_def_cfa_offset 8
 1063              		.cfi_offset 3, -8
 1064              		.cfi_offset 14, -4
  97:Src/main.c    **** 
 1065              		.loc 1 97 0
 1066 0002 FFF7FEFF 		bl	HAL_Init
 1067              	.LVL78:
 104:Src/main.c    **** 
 1068              		.loc 1 104 0
 1069 0006 FFF7FEFF 		bl	SystemClock_Config
 1070              	.LVL79:
 111:Src/main.c    ****   MX_USART2_UART_Init();
 1071              		.loc 1 111 0
 1072 000a FFF7FEFF 		bl	MX_GPIO_Init
 1073              	.LVL80:
 112:Src/main.c    ****   MX_I2C1_Init();
 1074              		.loc 1 112 0
 1075 000e FFF7FEFF 		bl	MX_USART2_UART_Init
 1076              	.LVL81:
 113:Src/main.c    ****   /* USER CODE BEGIN 2 */
 1077              		.loc 1 113 0
 1078 0012 FFF7FEFF 		bl	MX_I2C1_Init
 1079              	.LVL82:
 115:Src/main.c    ****   BMX_Check_connection();
 1080              		.loc 1 115 0
 1081 0016 FFF7FEFF 		bl	BMX_Init
ARM GAS  C:\Users\81806\AppData\Local\Temp\cchQkv7R.s 			page 29


 1082              	.LVL83:
 116:Src/main.c    ****   /* USER CODE END 2 */
 1083              		.loc 1 116 0
 1084 001a FFF7FEFF 		bl	BMX_Check_connection
 1085              	.LVL84:
 1086              	.L86:
 124:Src/main.c    ****    Show_float(xAccl);
 1087              		.loc 1 124 0 discriminator 1
 1088 001e FFF7FEFF 		bl	BMX_Accl
 1089              	.LVL85:
 125:Src/main.c    ****    Show_float(yAccl);
 1090              		.loc 1 125 0 discriminator 1
 1091 0022 0A4B     		ldr	r3, .L88
 1092 0024 93ED000A 		vldr.32	s0, [r3]
 1093 0028 FFF7FEFF 		bl	Show_float
 1094              	.LVL86:
 126:Src/main.c    ****    Show_float(zAccl);
 1095              		.loc 1 126 0 discriminator 1
 1096 002c 084B     		ldr	r3, .L88+4
 1097 002e 93ED000A 		vldr.32	s0, [r3]
 1098 0032 FFF7FEFF 		bl	Show_float
 1099              	.LVL87:
 127:Src/main.c    ****    HAL_Delay(1000);
 1100              		.loc 1 127 0 discriminator 1
 1101 0036 074B     		ldr	r3, .L88+8
 1102 0038 93ED000A 		vldr.32	s0, [r3]
 1103 003c FFF7FEFF 		bl	Show_float
 1104              	.LVL88:
 128:Src/main.c    ****   }
 1105              		.loc 1 128 0 discriminator 1
 1106 0040 4FF47A70 		mov	r0, #1000
 1107 0044 FFF7FEFF 		bl	HAL_Delay
 1108              	.LVL89:
 1109 0048 E9E7     		b	.L86
 1110              	.L89:
 1111 004a 00BF     		.align	2
 1112              	.L88:
 1113 004c 00000000 		.word	.LANCHOR0
 1114 0050 00000000 		.word	.LANCHOR1
 1115 0054 00000000 		.word	.LANCHOR2
 1116              		.cfi_endproc
 1117              	.LFE126:
 1119              		.comm	s,100,4
 1120              		.comm	k,100,4
 1121              		.global	r_data2
 1122              		.global	r_data
 1123              		.global	zAccl
 1124              		.global	yAccl
 1125              		.global	xAccl
 1126              		.comm	huart2,120,4
 1127              		.comm	hi2c1,76,4
 1128              		.section	.bss.r_data,"aw",%nobits
 1131              	r_data:
 1132 0000 00       		.space	1
 1133              		.section	.bss.r_data2,"aw",%nobits
 1136              	r_data2:
 1137 0000 00       		.space	1
ARM GAS  C:\Users\81806\AppData\Local\Temp\cchQkv7R.s 			page 30


 1138              		.section	.bss.xAccl,"aw",%nobits
 1139              		.align	2
 1140              		.set	.LANCHOR0,. + 0
 1143              	xAccl:
 1144 0000 00000000 		.space	4
 1145              		.section	.bss.yAccl,"aw",%nobits
 1146              		.align	2
 1147              		.set	.LANCHOR1,. + 0
 1150              	yAccl:
 1151 0000 00000000 		.space	4
 1152              		.section	.bss.zAccl,"aw",%nobits
 1153              		.align	2
 1154              		.set	.LANCHOR2,. + 0
 1157              	zAccl:
 1158 0000 00000000 		.space	4
 1159              		.section	.rodata.BMX_Check_connection.str1.4,"aMS",%progbits,1
 1160              		.align	2
 1161              	.LC0:
 1162 0000 436F6E6E 		.ascii	"Connection available\012\000"
 1162      65637469 
 1162      6F6E2061 
 1162      7661696C 
 1162      61626C65 
 1163 0016 0000     		.space	2
 1164              	.LC1:
 1165 0018 436F6E6E 		.ascii	"Connection unavailable\012\000"
 1165      65637469 
 1165      6F6E2075 
 1165      6E617661 
 1165      696C6162 
 1166              		.section	.rodata.MX_USART2_UART_Init.str1.4,"aMS",%progbits,1
 1167              		.align	2
 1168              	.LC5:
 1169 0000 5372632F 		.ascii	"Src/main.c\000"
 1169      6D61696E 
 1169      2E6300
 1170              		.section	.rodata.Show_float.str1.4,"aMS",%progbits,1
 1171              		.align	2
 1172              	.LC2:
 1173 0000 2D00     		.ascii	"-\000"
 1174 0002 0000     		.space	2
 1175              	.LC3:
 1176 0004 00       		.ascii	"\000"
 1177 0005 000000   		.space	3
 1178              	.LC4:
 1179 0008 78416363 		.ascii	"xAccl = %s%d.%04d\012\000"
 1179      6C203D20 
 1179      25732564 
 1179      2E253034 
 1179      640A00
 1180              		.text
 1181              	.Letext0:
 1182              		.file 2 "c:\\program files (x86)\\gnu tools arm embedded\\7 2018-q2-update\\arm-none-eabi\\include
 1183              		.file 3 "c:\\program files (x86)\\gnu tools arm embedded\\7 2018-q2-update\\arm-none-eabi\\include
 1184              		.file 4 "Drivers/CMSIS/Include/core_cm4.h"
 1185              		.file 5 "Drivers/CMSIS/Device/ST/STM32L4xx/Include/system_stm32l4xx.h"
 1186              		.file 6 "Drivers/CMSIS/Device/ST/STM32L4xx/Include/stm32l476xx.h"
ARM GAS  C:\Users\81806\AppData\Local\Temp\cchQkv7R.s 			page 31


 1187              		.file 7 "Drivers/STM32L4xx_HAL_Driver/Inc/stm32l4xx_hal_def.h"
 1188              		.file 8 "Drivers/STM32L4xx_HAL_Driver/Inc/stm32l4xx_hal_rcc.h"
 1189              		.file 9 "Drivers/STM32L4xx_HAL_Driver/Inc/stm32l4xx_hal_rcc_ex.h"
 1190              		.file 10 "Drivers/STM32L4xx_HAL_Driver/Inc/stm32l4xx_hal_gpio.h"
 1191              		.file 11 "Drivers/STM32L4xx_HAL_Driver/Inc/stm32l4xx_hal_dma.h"
 1192              		.file 12 "Drivers/STM32L4xx_HAL_Driver/Inc/stm32l4xx_hal_i2c.h"
 1193              		.file 13 "Drivers/STM32L4xx_HAL_Driver/Inc/stm32l4xx_hal_uart.h"
 1194              		.file 14 "Drivers/STM32L4xx_HAL_Driver/Inc/stm32l4xx_hal.h"
 1195              		.file 15 "c:\\program files (x86)\\gnu tools arm embedded\\7 2018-q2-update\\arm-none-eabi\\includ
 1196              		.file 16 "c:\\program files (x86)\\gnu tools arm embedded\\7 2018-q2-update\\arm-none-eabi\\includ
 1197              		.file 17 "c:\\program files (x86)\\gnu tools arm embedded\\7 2018-q2-update\\lib\\gcc\\arm-none-ea
 1198              		.file 18 "c:\\program files (x86)\\gnu tools arm embedded\\7 2018-q2-update\\arm-none-eabi\\includ
 1199              		.file 19 "c:\\program files (x86)\\gnu tools arm embedded\\7 2018-q2-update\\arm-none-eabi\\includ
 1200              		.file 20 "Drivers/STM32L4xx_HAL_Driver/Inc/stm32l4xx_hal_i2c_ex.h"
 1201              		.file 21 "Drivers/STM32L4xx_HAL_Driver/Inc/stm32l4xx_hal_pwr_ex.h"
 1202              		.file 22 "Drivers/STM32L4xx_HAL_Driver/Inc/stm32l4xx_hal_cortex.h"
 1203              		.file 23 "c:\\program files (x86)\\gnu tools arm embedded\\7 2018-q2-update\\arm-none-eabi\\includ
 1204              		.file 24 "c:\\program files (x86)\\gnu tools arm embedded\\7 2018-q2-update\\arm-none-eabi\\includ
ARM GAS  C:\Users\81806\AppData\Local\Temp\cchQkv7R.s 			page 32

